; Function Attrs: mustprogress uwtable
define hidden void @_ZN4cvc58internal4expr12TermCanonize16getCanonicalTermENS0_12NodeTemplateILb0EEERSt3mapIS4_NS3_ILb1EEESt4lessIS4_ESaISt4pairIKS4_S6_EEEbb(ptr dead_on_unwind noalias writable sret(%"class.cvc5::internal::NodeTemplate") align 8 %0, ptr noundef nonnull align 8 dereferenceable(216) %1, ptr noundef readonly captures(none) %2, ptr noundef nonnull align 8 dereferenceable(48) %3, i1 noundef zeroext %4, i1 noundef zeroext %5) local_unnamed_addr #4 align 2 personality ptr @__gxx_personality_v0 {
  %7 = alloca %"class.std::map.48", align 8
  %8 = alloca %"class.cvc5::internal::NodeTemplate.36", align 8
  call void @llvm.lifetime.start.p0(i64 48, ptr nonnull %7) #25
  %9 = getelementptr inbounds nuw i8, ptr %7, i64 8
  store i32 0, ptr %9, align 8, !tbaa !34
  %10 = getelementptr inbounds nuw i8, ptr %7, i64 16
  store ptr null, ptr %10, align 8, !tbaa !35
  %11 = getelementptr inbounds nuw i8, ptr %7, i64 24
  store ptr %9, ptr %11, align 8, !tbaa !36
  %12 = getelementptr inbounds nuw i8, ptr %7, i64 32
  store ptr %9, ptr %12, align 8, !tbaa !37
  %13 = getelementptr inbounds nuw i8, ptr %7, i64 40
  store i64 0, ptr %13, align 8, !tbaa !38
  %14 = load ptr, ptr %2, align 8, !tbaa !73
  store ptr %14, ptr %8, align 8, !tbaa !73
  invoke void @_ZN4cvc58internal4expr12TermCanonize16getCanonicalTermENS0_12NodeTemplateILb0EEEbbRSt3mapISt4pairINS0_8TypeNodeEjEjSt4lessIS8_ESaIS6_IKS8_jEEERS5_IS4_NS3_ILb1EEES9_IS4_ESaIS6_IKS4_SG_EEE(ptr dead_on_unwind writable sret(%"class.cvc5::internal::NodeTemplate") align 8 %0, ptr noundef nonnull align 8 dereferenceable(216) %1, ptr noundef nonnull %8, i1 noundef zeroext %4, i1 noundef zeroext %5, ptr noundef nonnull align 8 dereferenceable(48) %7, ptr noundef nonnull align 8 dereferenceable(48) %3)
          to label %15 unwind label %20

15:                                               ; preds = %6
  %16 = load ptr, ptr %10, align 8, !tbaa !35
  invoke void @_ZNSt8_Rb_treeISt4pairIN4cvc58internal8TypeNodeEjES0_IKS4_jESt10_Select1stIS6_ESt4lessIS4_ESaIS6_EE8_M_eraseEPSt13_Rb_tree_nodeIS6_E(ptr noundef nonnull align 8 dereferenceable(48) %7, ptr noundef %16)
          to label %_ZNSt3mapISt4pairIN4cvc58internal8TypeNodeEjEjSt4lessIS4_ESaIS0_IKS4_jEEED2Ev.exit unwind label %17

17:                                               ; preds = %15
  %18 = landingpad { ptr, i32 }
          catch ptr null
  %19 = extractvalue { ptr, i32 } %18, 0
  call void @__clang_call_terminate(ptr %19) #26
  unreachable

_ZNSt3mapISt4pairIN4cvc58internal8TypeNodeEjEjSt4lessIS4_ESaIS0_IKS4_jEEED2Ev.exit: ; preds = %15
  call void @llvm.lifetime.end.p0(i64 48, ptr nonnull %7) #25
  ret void

20:                                               ; preds = %6
  %21 = landingpad { ptr, i32 }
          cleanup
  call void @_ZNSt3mapISt4pairIN4cvc58internal8TypeNodeEjEjSt4lessIS4_ESaIS0_IKS4_jEEED2Ev(ptr noundef nonnull align 8 dereferenceable(48) %7) #25
  call void @llvm.lifetime.end.p0(i64 48, ptr nonnull %7) #25
  resume { ptr, i32 } %21
}